; ModuleID = 'source-C-CXX/9/2279.cpp'
source_filename = "source-C-CXX/9/2279.cpp"
target datalayout = "e-m:e-p270:32:32-p271:32:32-p272:64:64-i64:64-f80:128-n8:16:32:64-S128"
target triple = "x86_64-pc-linux-gnu"

%"class.std::ios_base::Init" = type { i8 }
%"class.std::basic_istream" = type { i32 (...)**, i64, %"class.std::basic_ios" }
%"class.std::basic_ios" = type { %"class.std::ios_base", %"class.std::basic_ostream"*, i8, i8, %"class.std::basic_streambuf"*, %"class.std::ctype"*, %"class.std::num_put"*, %"class.std::num_get"* }
%"class.std::ios_base" = type { i32 (...)**, i64, i64, i32, i32, i32, %"struct.std::ios_base::_Callback_list"*, %"struct.std::ios_base::_Words", [8 x %"struct.std::ios_base::_Words"], i32, %"struct.std::ios_base::_Words"*, %"class.std::locale" }
%"struct.std::ios_base::_Callback_list" = type { %"struct.std::ios_base::_Callback_list"*, void (i32, %"class.std::ios_base"*, i32)*, i32, i32 }
%"struct.std::ios_base::_Words" = type { i8*, i64 }
%"class.std::locale" = type { %"class.std::locale::_Impl"* }
%"class.std::locale::_Impl" = type { i32, %"class.std::locale::facet"**, i64, %"class.std::locale::facet"**, i8** }
%"class.std::locale::facet" = type <{ i32 (...)**, i32, [4 x i8] }>
%"class.std::basic_ostream" = type { i32 (...)**, %"class.std::basic_ios" }
%"class.std::basic_streambuf" = type { i32 (...)**, i8*, i8*, i8*, i8*, i8*, i8*, %"class.std::locale" }
%"class.std::ctype" = type <{ %"class.std::locale::facet.base", [4 x i8], %struct.__locale_struct*, i8, [7 x i8], i32*, i32*, i16*, i8, [256 x i8], [256 x i8], i8, [6 x i8] }>
%"class.std::locale::facet.base" = type <{ i32 (...)**, i32 }>
%struct.__locale_struct = type { [13 x %struct.__locale_data*], i16*, i32*, i32*, [13 x i8*] }
%struct.__locale_data = type opaque
%"class.std::num_put" = type { %"class.std::locale::facet.base", [4 x i8] }
%"class.std::num_get" = type { %"class.std::locale::facet.base", [4 x i8] }

@_ZStL8__ioinit = internal global %"class.std::ios_base::Init" zeroinitializer, align 1
@__dso_handle = external hidden global i8
@n = dso_local global i32 0, align 4
@a = dso_local global [30 x i32] zeroinitializer, align 16
@_ZSt3cin = external global %"class.std::basic_istream", align 8
@_ZSt4cout = external global %"class.std::basic_ostream", align 8
@llvm.global_ctors = appending global [1 x { i32, void ()*, i8* }] [{ i32, void ()*, i8* } { i32 65535, void ()* @_GLOBAL__sub_I_2279.cpp, i8* null }]

declare void @_ZNSt8ios_base4InitC1Ev(%"class.std::ios_base::Init"* nonnull align 1 dereferenceable(1)) unnamed_addr #0

; Function Attrs: nounwind
declare void @_ZNSt8ios_base4InitD1Ev(%"class.std::ios_base::Init"* nonnull align 1 dereferenceable(1)) unnamed_addr #1

; Function Attrs: nofree nounwind
declare i32 @__cxa_atexit(void (i8*)*, i8*, i8*) local_unnamed_addr #2

; Function Attrs: mustprogress norecurse sspstrong uwtable
define dso_local i32 @main() local_unnamed_addr #3 {
  %1 = tail call nonnull align 8 dereferenceable(16) %"class.std::basic_istream"* @_ZNSirsERi(%"class.std::basic_istream"* nonnull align 8 dereferenceable(16) @_ZSt3cin, i32* nonnull align 4 dereferenceable(4) @n)
  %2 = load i32, i32* @n, align 4, !tbaa !5
  %3 = icmp slt i32 %2, 1
  br i1 %3, label %4, label %37

4:                                                ; preds = %37, %0
  %5 = phi i32 [ %2, %0 ], [ %42, %37 ]
  store i32 1000000, i32* getelementptr inbounds ([30 x i32], [30 x i32]* @a, i64 0, i64 0), align 16, !tbaa !5
  %6 = tail call i32 @_Z5afteriii(i32 1, i32 0, i32 %5)
  %7 = tail call nonnull align 8 dereferenceable(8) %"class.std::basic_ostream"* @_ZNSolsEi(%"class.std::basic_ostream"* nonnull align 8 dereferenceable(8) @_ZSt4cout, i32 %6)
  %8 = bitcast %"class.std::basic_ostream"* %7 to i8**
  %9 = load i8*, i8** %8, align 8, !tbaa !9
  %10 = getelementptr i8, i8* %9, i64 -24
  %11 = bitcast i8* %10 to i64*
  %12 = load i64, i64* %11, align 8
  %13 = bitcast %"class.std::basic_ostream"* %7 to i8*
  %14 = add nsw i64 %12, 240
  %15 = getelementptr inbounds i8, i8* %13, i64 %14
  %16 = bitcast i8* %15 to %"class.std::ctype"**
  %17 = load %"class.std::ctype"*, %"class.std::ctype"** %16, align 8, !tbaa !11
  %18 = icmp eq %"class.std::ctype"* %17, null
  br i1 %18, label %19, label %20

19:                                               ; preds = %4
  tail call void @_ZSt16__throw_bad_castv() #7
  unreachable

20:                                               ; preds = %4
  %21 = getelementptr inbounds %"class.std::ctype", %"class.std::ctype"* %17, i64 0, i32 8
  %22 = load i8, i8* %21, align 8, !tbaa !15
  %23 = icmp eq i8 %22, 0
  br i1 %23, label %27, label %24

24:                                               ; preds = %20
  %25 = getelementptr inbounds %"class.std::ctype", %"class.std::ctype"* %17, i64 0, i32 9, i64 10
  %26 = load i8, i8* %25, align 1, !tbaa !17
  br label %33

27:                                               ; preds = %20
  tail call void @_ZNKSt5ctypeIcE13_M_widen_initEv(%"class.std::ctype"* nonnull align 8 dereferenceable(570) %17)
  %28 = bitcast %"class.std::ctype"* %17 to i8 (%"class.std::ctype"*, i8)***
  %29 = load i8 (%"class.std::ctype"*, i8)**, i8 (%"class.std::ctype"*, i8)*** %28, align 8, !tbaa !9
  %30 = getelementptr inbounds i8 (%"class.std::ctype"*, i8)*, i8 (%"class.std::ctype"*, i8)** %29, i64 6
  %31 = load i8 (%"class.std::ctype"*, i8)*, i8 (%"class.std::ctype"*, i8)** %30, align 8
  %32 = tail call signext i8 %31(%"class.std::ctype"* nonnull align 8 dereferenceable(570) %17, i8 signext 10)
  br label %33

33:                                               ; preds = %24, %27
  %34 = phi i8 [ %26, %24 ], [ %32, %27 ]
  %35 = tail call nonnull align 8 dereferenceable(8) %"class.std::basic_ostream"* @_ZNSo3putEc(%"class.std::basic_ostream"* nonnull align 8 dereferenceable(8) %7, i8 signext %34)
  %36 = tail call nonnull align 8 dereferenceable(8) %"class.std::basic_ostream"* @_ZNSo5flushEv(%"class.std::basic_ostream"* nonnull align 8 dereferenceable(8) %35)
  ret i32 0

37:                                               ; preds = %0, %37
  %38 = phi i64 [ %41, %37 ], [ 1, %0 ]
  %39 = getelementptr inbounds [30 x i32], [30 x i32]* @a, i64 0, i64 %38
  %40 = tail call nonnull align 8 dereferenceable(16) %"class.std::basic_istream"* @_ZNSirsERi(%"class.std::basic_istream"* nonnull align 8 dereferenceable(16) @_ZSt3cin, i32* nonnull align 4 dereferenceable(4) %39)
  %41 = add nuw nsw i64 %38, 1
  %42 = load i32, i32* @n, align 4, !tbaa !5
  %43 = sext i32 %42 to i64
  %44 = icmp slt i64 %38, %43
  br i1 %44, label %37, label %4, !llvm.loop !18
}

declare nonnull align 8 dereferenceable(16) %"class.std::basic_istream"* @_ZNSirsERi(%"class.std::basic_istream"* nonnull align 8 dereferenceable(16), i32* nonnull align 4 dereferenceable(4)) local_unnamed_addr #0

declare nonnull align 8 dereferenceable(8) %"class.std::basic_ostream"* @_ZNSolsEi(%"class.std::basic_ostream"* nonnull align 8 dereferenceable(8), i32) local_unnamed_addr #0

; Function Attrs: mustprogress nofree nosync nounwind readonly sspstrong uwtable willreturn
define dso_local i32 @_Z5afteriii(i32 %0, i32 %1, i32 %2) local_unnamed_addr #4 {
  %4 = icmp eq i32 %0, %2
  %5 = sext i32 %1 to i64
  %6 = getelementptr inbounds [30 x i32], [30 x i32]* @a, i64 0, i64 %5
  %7 = load i32, i32* %6, align 4, !tbaa !5
  br i1 %4, label %10, label %8

8:                                                ; preds = %3
  %9 = sext i32 %0 to i64
  br label %16

10:                                               ; preds = %31, %3
  %11 = sext i32 %2 to i64
  %12 = getelementptr inbounds [30 x i32], [30 x i32]* @a, i64 0, i64 %11
  %13 = load i32, i32* %12, align 4, !tbaa !5
  %14 = icmp sle i32 %13, %7
  %15 = zext i1 %14 to i32
  br label %21

16:                                               ; preds = %8, %31
  %17 = phi i64 [ %9, %8 ], [ %32, %31 ]
  %18 = getelementptr inbounds [30 x i32], [30 x i32]* @a, i64 0, i64 %17
  %19 = load i32, i32* %18, align 4, !tbaa !5
  %20 = icmp sgt i32 %19, %7
  br i1 %20, label %31, label %23

21:                                               ; preds = %10, %23
  %22 = phi i32 [ %30, %23 ], [ %15, %10 ]
  ret i32 %22

23:                                               ; preds = %16
  %24 = trunc i64 %17 to i32
  %25 = add nsw i32 %24, 1
  %26 = tail call i32 @_Z5afteriii(i32 %25, i32 %24, i32 %2)
  %27 = add nsw i32 %26, 1
  %28 = tail call i32 @_Z5afteriii(i32 %25, i32 %1, i32 %2)
  %29 = icmp slt i32 %26, %28
  %30 = select i1 %29, i32 %28, i32 %27
  br label %21

31:                                               ; preds = %16
  %32 = add nsw i64 %17, 1
  %33 = trunc i64 %32 to i32
  %34 = icmp eq i32 %33, %2
  br i1 %34, label %10, label %16
}

declare nonnull align 8 dereferenceable(8) %"class.std::basic_ostream"* @_ZNSo3putEc(%"class.std::basic_ostream"* nonnull align 8 dereferenceable(8), i8 signext) local_unnamed_addr #0

declare nonnull align 8 dereferenceable(8) %"class.std::basic_ostream"* @_ZNSo5flushEv(%"class.std::basic_ostream"* nonnull align 8 dereferenceable(8)) local_unnamed_addr #0

; Function Attrs: noreturn
declare void @_ZSt16__throw_bad_castv() local_unnamed_addr #5

declare void @_ZNKSt5ctypeIcE13_M_widen_initEv(%"class.std::ctype"* nonnull align 8 dereferenceable(570)) local_unnamed_addr #0

; Function Attrs: sspstrong uwtable
define internal void @_GLOBAL__sub_I_2279.cpp() #6 section ".text.startup" {
  tail call void @_ZNSt8ios_base4InitC1Ev(%"class.std::ios_base::Init"* nonnull align 1 dereferenceable(1) @_ZStL8__ioinit)
  %1 = tail call i32 @__cxa_atexit(void (i8*)* bitcast (void (%"class.std::ios_base::Init"*)* @_ZNSt8ios_base4InitD1Ev to void (i8*)*), i8* getelementptr inbounds (%"class.std::ios_base::Init", %"class.std::ios_base::Init"* @_ZStL8__ioinit, i64 0, i32 0), i8* nonnull @__dso_handle) #8
  ret void
}


!llvm.module.flags = !{!0, !1, !2, !3}
!llvm.ident = !{!4}

!0 = !{i32 1, !"wchar_size", i32 4}
!1 = !{i32 7, !"PIC Level", i32 2}
!2 = !{i32 7, !"PIE Level", i32 2}
!3 = !{i32 7, !"uwtable", i32 1}
!4 = !{!"clang version 13.0.0"}
!5 = !{!6, !6, i64 0}
!6 = !{!"int", !7, i64 0}
!7 = !{!"omnipotent char", !8, i64 0}
!8 = !{!"Simple C++ TBAA"}
!9 = !{!10, !10, i64 0}
!10 = !{!"vtable pointer", !8, i64 0}
!11 = !{!12, !13, i64 240}
!12 = !{!"_ZTSSt9basic_iosIcSt11char_traitsIcEE", !13, i64 216, !7, i64 224, !14, i64 225, !13, i64 232, !13, i64 240, !13, i64 248, !13, i64 256}
!13 = !{!"any pointer", !7, i64 0}
!14 = !{!"bool", !7, i64 0}
!15 = !{!16, !7, i64 56}
!16 = !{!"_ZTSSt5ctypeIcE", !13, i64 16, !14, i64 24, !13, i64 32, !13, i64 40, !13, i64 48, !7, i64 56, !7, i64 57, !7, i64 313, !7, i64 569}
!17 = !{!7, !7, i64 0}
!18 = distinct !{!18, !19}
!19 = !{!"llvm.loop.mustprogress"}
